; Function Attrs: nounwind uwtable
define zeroext i1 @lv_anim_custom_delete(ptr noundef readonly %0, ptr noundef %1) local_unnamed_addr #0 {
  %.not = icmp eq ptr %0, null
  br i1 %.not, label %5, label %3

3:                                                ; preds = %2
  %4 = load ptr, ptr %0, align 8, !tbaa !34
  br label %5

5:                                                ; preds = %2, %3
  %6 = phi ptr [ %4, %3 ], [ null, %2 ]
  %7 = tail call zeroext i1 @lv_anim_delete(ptr noundef %6, ptr noundef %1)
  ret i1 %7
}